target datalayout = "e-m:e-p270:32:32-p271:32:32-p272:64:64-i64:64-i128:128-f80:128-n8:16:32:64-S128"
target triple = "x86_64-pc-linux-gnu"

%"class.llvm::StringMapImpl" = type { ptr, i32, i32, i32, i32 }
%"struct.(anonymous namespace)::TupleExpander" = type { %"class.llvm::SetTheory::Expander", ptr, %"class.llvm::StringSet" }
%"class.llvm::SetTheory::Expander" = type { ptr }
%"class.llvm::StringSet" = type { %"class.llvm::StringMap.639" }
%"class.llvm::StringMap.639" = type { %"class.llvm::StringMapImpl" }
%"class.llvm::StringMapEntryBase" = type { i64 }

; Function Attrs: mustprogress nounwind uwtable
define linkonce_odr hidden void @_ZN4llvm15MallocAllocator10DeallocateEPKvmm(ptr noundef nonnull align 1 dereferenceable(1) %0, ptr noundef %1, i64 noundef %2, i64 noundef %3) #0 comdat align 2 {
  %5 = alloca ptr, align 8
  %6 = alloca ptr, align 8
  %7 = alloca i64, align 8
  %8 = alloca i64, align 8
  store ptr %0, ptr %5, align 8
  store ptr %1, ptr %6, align 8
  store i64 %2, ptr %7, align 8
  store i64 %3, ptr %8, align 8
  %9 = load ptr, ptr %6, align 8
  %10 = load i64, ptr %7, align 8
  %11 = load i64, ptr %8, align 8
  call void @_ZN4llvm17deallocate_bufferEPvmm(ptr noundef %9, i64 noundef %10, i64 noundef %11)
  ret void
}

; Function Attrs: mustprogress nounwind uwtable
define linkonce_odr hidden noundef i64 @_ZNK4llvm18StringMapEntryBase12getKeyLengthEv(ptr noundef nonnull align 8 dereferenceable(8) %0) #0 comdat align 2 {
  %2 = alloca ptr, align 8
  store ptr %0, ptr %2, align 8
  %3 = load ptr, ptr %2, align 8
  %4 = getelementptr inbounds nuw %"class.llvm::StringMapEntryBase", ptr %3, i32 0, i32 0
  %5 = load i64, ptr %4, align 8
  ret i64 %5
}

; Function Attrs: mustprogress nounwind uwtable
define linkonce_odr hidden void @_ZN4llvm13StringMapImplD2Ev(ptr noundef nonnull align 8 dereferenceable(24) %0) unnamed_addr #0 comdat align 2 {
  %2 = alloca ptr, align 8
  store ptr %0, ptr %2, align 8
  %3 = load ptr, ptr %2, align 8
  %4 = getelementptr inbounds nuw %"class.llvm::StringMapImpl", ptr %3, i32 0, i32 0
  %5 = load ptr, ptr %4, align 8
  call void @free(ptr noundef %5) #6
  ret void
}

; Function Attrs: mustprogress nounwind uwtable
define linkonce_odr hidden void @_ZN4llvm14StringMapEntryISt9nullopt_tE7DestroyINS_15MallocAllocatorEEEvRT_(ptr noundef nonnull align 8 dereferenceable(8) %0, ptr noundef nonnull align 1 dereferenceable(1) %1) #0 comdat align 2 {
  %3 = alloca ptr, align 8
  %4 = alloca ptr, align 8
  %5 = alloca i64, align 8
  store ptr %0, ptr %3, align 8
  store ptr %1, ptr %4, align 8
  %6 = load ptr, ptr %3, align 8
  %7 = call noundef i64 @_ZNK4llvm18StringMapEntryBase12getKeyLengthEv(ptr noundef nonnull align 8 dereferenceable(8) %6)
  %8 = add i64 8, %7
  %9 = add i64 %8, 1
  store i64 %9, ptr %5, align 8
  %10 = load ptr, ptr %4, align 8
  %11 = load i64, ptr %5, align 8
  call void @_ZN4llvm15MallocAllocator10DeallocateEPKvmm(ptr noundef nonnull align 1 dereferenceable(1) %10, ptr noundef %6, i64 noundef %11, i64 noundef 8)
  ret void
}

; Function Attrs: mustprogress nounwind uwtable
define linkonce_odr hidden noundef nonnull align 1 dereferenceable(1) ptr @_ZN4llvm6detail15AllocatorHolderINS_15MallocAllocatorEE12getAllocatorEv(ptr noundef nonnull align 1 dereferenceable(1) %0) #0 comdat align 2 {
  %2 = alloca ptr, align 8
  store ptr %0, ptr %2, align 8
  %3 = load ptr, ptr %2, align 8
  ret ptr %3
}

; Function Attrs: mustprogress nounwind uwtable
define linkonce_odr hidden noundef ptr @_ZN4llvm13StringMapImpl15getTombstoneValEv() #0 comdat align 2 {
  ret ptr inttoptr (i64 -8 to ptr)
}

; Function Attrs: mustprogress nounwind uwtable
define linkonce_odr hidden noundef zeroext i1 @_ZNK4llvm13StringMapImpl5emptyEv(ptr noundef nonnull align 8 dereferenceable(24) %0) #0 comdat align 2 {
  %2 = alloca ptr, align 8
  store ptr %0, ptr %2, align 8
  %3 = load ptr, ptr %2, align 8
  %4 = getelementptr inbounds nuw %"class.llvm::StringMapImpl", ptr %3, i32 0, i32 2
  %5 = load i32, ptr %4, align 4
  %6 = icmp eq i32 %5, 0
  ret i1 %6
}

; Function Attrs: mustprogress nounwind uwtable
define linkonce_odr hidden void @_ZN4llvm9StringMapISt9nullopt_tNS_15MallocAllocatorEED2Ev(ptr noundef nonnull align 8 dereferenceable(24) %0) unnamed_addr #0 comdat align 2 {
  %2 = alloca ptr, align 8
  %3 = alloca i32, align 4
  %4 = alloca i32, align 4
  %5 = alloca ptr, align 8
  store ptr %0, ptr %2, align 8
  %6 = load ptr, ptr %2, align 8
  %7 = call noundef zeroext i1 @_ZNK4llvm13StringMapImpl5emptyEv(ptr noundef nonnull align 8 dereferenceable(24) %6)
  br i1 %7, label %36, label %8

8:                                                ; preds = %1
  store i32 0, ptr %3, align 4
  %9 = getelementptr inbounds nuw %"class.llvm::StringMapImpl", ptr %6, i32 0, i32 1
  %10 = load i32, ptr %9, align 8
  store i32 %10, ptr %4, align 4
  br label %11

11:                                               ; preds = %32, %8
  %12 = load i32, ptr %3, align 4
  %13 = load i32, ptr %4, align 4
  %14 = icmp ne i32 %12, %13
  br i1 %14, label %15, label %35

15:                                               ; preds = %11
  %16 = getelementptr inbounds nuw %"class.llvm::StringMapImpl", ptr %6, i32 0, i32 0
  %17 = load ptr, ptr %16, align 8
  %18 = load i32, ptr %3, align 4
  %19 = zext i32 %18 to i64
  %20 = getelementptr inbounds ptr, ptr %17, i64 %19
  %21 = load ptr, ptr %20, align 8
  store ptr %21, ptr %5, align 8
  %22 = load ptr, ptr %5, align 8
  %23 = icmp ne ptr %22, null
  br i1 %23, label %24, label %31

24:                                               ; preds = %15
  %25 = load ptr, ptr %5, align 8
  %26 = call noundef ptr @_ZN4llvm13StringMapImpl15getTombstoneValEv()
  %27 = icmp ne ptr %25, %26
  br i1 %27, label %28, label %31

28:                                               ; preds = %24
  %29 = load ptr, ptr %5, align 8
  %30 = call noundef nonnull align 1 dereferenceable(1) ptr @_ZN4llvm6detail15AllocatorHolderINS_15MallocAllocatorEE12getAllocatorEv(ptr noundef nonnull align 1 dereferenceable(1) %6)
  call void @_ZN4llvm14StringMapEntryISt9nullopt_tE7DestroyINS_15MallocAllocatorEEEvRT_(ptr noundef nonnull align 8 dereferenceable(8) %29, ptr noundef nonnull align 1 dereferenceable(1) %30)
  br label %31

31:                                               ; preds = %28, %24, %15
  br label %32

32:                                               ; preds = %31
  %33 = load i32, ptr %3, align 4
  %34 = add i32 %33, 1
  store i32 %34, ptr %3, align 4
  br label %11, !llvm.loop !242

35:                                               ; preds = %11
  br label %36

36:                                               ; preds = %35, %1
  call void @_ZN4llvm13StringMapImplD2Ev(ptr noundef nonnull align 8 dereferenceable(24) %6) #6
  ret void
}

; Function Attrs: mustprogress nounwind uwtable
define linkonce_odr hidden void @_ZN4llvm9SetTheory8ExpanderD2Ev(ptr noundef nonnull align 8 dereferenceable(8) %0) unnamed_addr #0 comdat align 2 {
  %2 = alloca ptr, align 8
  store ptr %0, ptr %2, align 8
  ret void
}

; Function Attrs: mustprogress nounwind uwtable
define linkonce_odr hidden void @_ZN4llvm9StringSetINS_15MallocAllocatorEED2Ev(ptr noundef nonnull align 8 dereferenceable(24) %0) unnamed_addr #0 comdat align 2 {
  %2 = alloca ptr, align 8
  store ptr %0, ptr %2, align 8
  %3 = load ptr, ptr %2, align 8
  call void @_ZN4llvm9StringMapISt9nullopt_tNS_15MallocAllocatorEED2Ev(ptr noundef nonnull align 8 dereferenceable(24) %3) #6
  ret void
}

; Function Attrs: mustprogress nounwind uwtable
define internal void @_ZN12_GLOBAL__N_113TupleExpanderD2Ev(ptr noundef nonnull align 8 dereferenceable(40) %0) unnamed_addr #0 align 2 {
  %2 = alloca ptr, align 8
  store ptr %0, ptr %2, align 8
  %3 = load ptr, ptr %2, align 8
  store ptr getelementptr inbounds inrange(-16, 32) ({ [6 x ptr] }, ptr @_ZTVN12_GLOBAL__N_113TupleExpanderE, i32 0, i32 0, i32 2), ptr %3, align 8
  %4 = getelementptr inbounds nuw %"struct.(anonymous namespace)::TupleExpander", ptr %3, i32 0, i32 2
  call void @_ZN4llvm9StringSetINS_15MallocAllocatorEED2Ev(ptr noundef nonnull align 8 dereferenceable(24) %4) #6
  call void @_ZN4llvm9SetTheory8ExpanderD2Ev(ptr noundef nonnull align 8 dereferenceable(8) %3) #6
  ret void
}