; Function Attrs: mustprogress nounwind uwtable
define internal void @_ZN12_GLOBAL__N_113TupleExpanderD2Ev(ptr nocapture noundef nonnull align 8 dereferenceable(40) %0) unnamed_addr #0 align 2 {
  store ptr getelementptr inbounds inrange(-16, 32) (i8, ptr @_ZTVN12_GLOBAL__N_113TupleExpanderE, i64 16), ptr %0, align 8
  %2 = getelementptr inbounds nuw i8, ptr %0, i64 16
  %3 = getelementptr inbounds i8, ptr %0, i64 28
  %4 = load i32, ptr %3, align 4
  %5 = icmp eq i32 %4, 0
  br i1 %5, label %_ZN4llvm9StringSetINS_15MallocAllocatorEED2Ev.exit, label %6

6:                                                ; preds = %1
  %7 = getelementptr inbounds i8, ptr %0, i64 24
  %8 = load i32, ptr %7, align 8
  %.not10.i.i = icmp eq i32 %8, 0
  br i1 %.not10.i.i, label %_ZN4llvm9StringSetINS_15MallocAllocatorEED2Ev.exit, label %.lr.ph.preheader.i.i

.lr.ph.preheader.i.i:                             ; preds = %6
  %9 = zext i32 %8 to i64
  br label %.lr.ph.i.i

.lr.ph.i.i:                                       ; preds = %16, %.lr.ph.preheader.i.i
  %indvars.iv.i.i = phi i64 [ 0, %.lr.ph.preheader.i.i ], [ %indvars.iv.next.i.i, %16 ]
  %10 = load ptr, ptr %2, align 8
  %11 = getelementptr inbounds ptr, ptr %10, i64 %indvars.iv.i.i
  %12 = load ptr, ptr %11, align 8
  %magicptr.i.i = ptrtoint ptr %12 to i64
  switch i64 %magicptr.i.i, label %13 [
    i64 0, label %16
    i64 -8, label %16
  ]

13:                                               ; preds = %.lr.ph.i.i
  %14 = load i64, ptr %12, align 8
  %15 = add i64 %14, 9
  tail call void @_ZN4llvm17deallocate_bufferEPvmm(ptr noundef nonnull %12, i64 noundef %15, i64 noundef 8) #25
  br label %16

16:                                               ; preds = %13, %.lr.ph.i.i, %.lr.ph.i.i
  %indvars.iv.next.i.i = add nuw nsw i64 %indvars.iv.i.i, 1
  %.not.i.i = icmp eq i64 %indvars.iv.next.i.i, %9
  br i1 %.not.i.i, label %_ZN4llvm9StringSetINS_15MallocAllocatorEED2Ev.exit, label %.lr.ph.i.i, !llvm.loop !563

_ZN4llvm9StringSetINS_15MallocAllocatorEED2Ev.exit: ; preds = %16, %1, %6
  %17 = load ptr, ptr %2, align 8
  tail call void @free(ptr noundef %17) #25
  ret void
}